target datalayout = "e-m:e-p270:32:32-p271:32:32-p272:64:64-i64:64-i128:128-f80:128-n8:16:32:64-S128"
target triple = "x86_64-pc-linux-gnu"

@hf_aim_string08 = internal global i32 0, align 4
@ett_aim_string08_array = internal global i32 0, align 4

; Function Attrs: null_pointer_is_valid sspstrong uwtable
define internal i32 @dissect_aim_tlv_value_string08_array(ptr noundef %0, i16 noundef zeroext %1, ptr noundef %2, ptr noundef %3) #0 {
  %5 = alloca ptr, align 8
  %6 = alloca i16, align 2
  %7 = alloca ptr, align 8
  %8 = alloca ptr, align 8
  %9 = alloca ptr, align 8
  %10 = alloca i32, align 4
  %11 = alloca i8, align 1
  store ptr %0, ptr %5, align 8
  store i16 %1, ptr %6, align 2
  store ptr %2, ptr %7, align 8
  store ptr %3, ptr %8, align 8
  call void @llvm.lifetime.start.p0(i64 8, ptr %9) #13
  call void @llvm.lifetime.start.p0(i64 4, ptr %10) #13
  store i32 0, ptr %10, align 4
  %12 = load ptr, ptr %5, align 8
  %13 = load i32, ptr @ett_aim_string08_array, align 4
  %14 = call ptr @proto_item_add_subtree(ptr noundef %12, i32 noundef %13)
  store ptr %14, ptr %9, align 8
  br label %15

15:                                               ; preds = %20, %4
  %16 = load ptr, ptr %7, align 8
  %17 = load i32, ptr %10, align 4
  %18 = call i32 @tvb_reported_length_remaining(ptr noundef %16, i32 noundef %17)
  %19 = icmp sgt i32 %18, 1
  br i1 %19, label %20, label %34

20:                                               ; preds = %15
  call void @llvm.lifetime.start.p0(i64 1, ptr %11) #13
  %21 = load ptr, ptr %7, align 8
  %22 = load i32, ptr %10, align 4
  %23 = call zeroext i8 @tvb_get_uint8(ptr noundef %21, i32 noundef %22)
  store i8 %23, ptr %11, align 1
  %24 = load ptr, ptr %9, align 8
  %25 = load i32, ptr @hf_aim_string08, align 4
  %26 = load ptr, ptr %7, align 8
  %27 = load i32, ptr %10, align 4
  %28 = call ptr @proto_tree_add_item(ptr noundef %24, i32 noundef %25, ptr noundef %26, i32 noundef %27, i32 noundef 1, i32 noundef 2)
  %29 = load i8, ptr %11, align 1
  %30 = zext i8 %29 to i32
  %31 = add i32 %30, 1
  %32 = load i32, ptr %10, align 4
  %33 = add i32 %32, %31
  store i32 %33, ptr %10, align 4
  call void @llvm.lifetime.end.p0(i64 1, ptr %11) #13
  br label %15, !llvm.loop !39

34:                                               ; preds = %15
  %35 = load i32, ptr %10, align 4
  call void @llvm.lifetime.end.p0(i64 4, ptr %10) #13
  call void @llvm.lifetime.end.p0(i64 8, ptr %9) #13
  ret i32 %35
}