; Function Attrs: null_pointer_is_valid sspstrong uwtable
define internal noundef i32 @dissect_aim_tlv_value_string08_array(ptr noundef %0, i16 zeroext %1, ptr noundef %2, ptr readnone captures(none) %3) #0 {
  %5 = load i32, ptr @ett_aim_string08_array, align 4
  %6 = tail call ptr @proto_item_add_subtree(ptr noundef %0, i32 noundef %5)
  %7 = tail call i32 @tvb_reported_length_remaining(ptr noundef %2, i32 noundef 0)
  %8 = icmp sgt i32 %7, 1
  br i1 %8, label %.lr.ph, label %._crit_edge

.lr.ph:                                           ; preds = %4, %.lr.ph
  %.010 = phi i32 [ %14, %.lr.ph ], [ 0, %4 ]
  %9 = tail call zeroext i8 @tvb_get_uint8(ptr noundef %2, i32 noundef %.010)
  %10 = load i32, ptr @hf_aim_string08, align 4
  %11 = tail call ptr @proto_tree_add_item(ptr noundef %6, i32 noundef %10, ptr noundef %2, i32 noundef %.010, i32 noundef 1, i32 noundef 2)
  %12 = zext i8 %9 to i32
  %13 = add i32 %.010, 1
  %14 = add i32 %13, %12
  %15 = tail call i32 @tvb_reported_length_remaining(ptr noundef %2, i32 noundef %14)
  %16 = icmp sgt i32 %15, 1
  br i1 %16, label %.lr.ph, label %._crit_edge, !llvm.loop !39

._crit_edge:                                      ; preds = %.lr.ph, %4
  %.0.lcssa = phi i32 [ 0, %4 ], [ %14, %.lr.ph ]
  ret i32 %.0.lcssa
}